target datalayout = "e-m:e-p270:32:32-p271:32:32-p272:64:64-i64:64-i128:128-f80:128-n8:16:32:64-S128"
target triple = "x86_64-pc-linux-gnu"

%struct.SDL_BlitInfo = type { ptr, ptr, i32, i32, i32, i32, ptr, ptr, i32, i32, i32, i32, ptr, ptr, ptr, ptr, ptr, ptr, i32, i32, i8, i8, i8, i8 }

; Function Attrs: nounwind uwtable
define internal void @Blit1to3(ptr noundef %0) #0 {
  %2 = alloca ptr, align 8
  %3 = alloca i32, align 4
  %4 = alloca i32, align 4
  %5 = alloca i32, align 4
  %6 = alloca ptr, align 8
  %7 = alloca ptr, align 8
  %8 = alloca ptr, align 8
  %9 = alloca i32, align 4
  %10 = alloca i32, align 4
  %11 = alloca i32, align 4
  store ptr %0, ptr %2, align 8
  call void @llvm.lifetime.start.p0(i64 4, ptr %3) #2
  call void @llvm.lifetime.start.p0(i64 4, ptr %4) #2
  call void @llvm.lifetime.start.p0(i64 4, ptr %5) #2
  call void @llvm.lifetime.start.p0(i64 8, ptr %6) #2
  call void @llvm.lifetime.start.p0(i64 8, ptr %7) #2
  call void @llvm.lifetime.start.p0(i64 8, ptr %8) #2
  call void @llvm.lifetime.start.p0(i64 4, ptr %9) #2
  call void @llvm.lifetime.start.p0(i64 4, ptr %10) #2
  %12 = load ptr, ptr %2, align 8
  %13 = getelementptr inbounds nuw %struct.SDL_BlitInfo, ptr %12, i32 0, i32 8
  %14 = load i32, ptr %13, align 8
  store i32 %14, ptr %4, align 4
  %15 = load ptr, ptr %2, align 8
  %16 = getelementptr inbounds nuw %struct.SDL_BlitInfo, ptr %15, i32 0, i32 9
  %17 = load i32, ptr %16, align 4
  store i32 %17, ptr %5, align 4
  %18 = load ptr, ptr %2, align 8
  %19 = getelementptr inbounds nuw %struct.SDL_BlitInfo, ptr %18, i32 0, i32 1
  %20 = load ptr, ptr %19, align 8
  store ptr %20, ptr %6, align 8
  %21 = load ptr, ptr %2, align 8
  %22 = getelementptr inbounds nuw %struct.SDL_BlitInfo, ptr %21, i32 0, i32 5
  %23 = load i32, ptr %22, align 4
  store i32 %23, ptr %9, align 4
  %24 = load ptr, ptr %2, align 8
  %25 = getelementptr inbounds nuw %struct.SDL_BlitInfo, ptr %24, i32 0, i32 7
  %26 = load ptr, ptr %25, align 8
  store ptr %26, ptr %8, align 8
  %27 = load ptr, ptr %2, align 8
  %28 = getelementptr inbounds nuw %struct.SDL_BlitInfo, ptr %27, i32 0, i32 11
  %29 = load i32, ptr %28, align 4
  store i32 %29, ptr %10, align 4
  %30 = load ptr, ptr %2, align 8
  %31 = getelementptr inbounds nuw %struct.SDL_BlitInfo, ptr %30, i32 0, i32 16
  %32 = load ptr, ptr %31, align 8
  store ptr %32, ptr %7, align 8
  br label %33

33:                                               ; preds = %181, %1
  %34 = load i32, ptr %5, align 4
  %35 = add nsw i32 %34, -1
  store i32 %35, ptr %5, align 4
  %36 = icmp ne i32 %34, 0
  br i1 %36, label %37, label %190

37:                                               ; preds = %33
  call void @llvm.lifetime.start.p0(i64 4, ptr %11) #2
  %38 = load i32, ptr %4, align 4
  %39 = add nsw i32 %38, 3
  %40 = sdiv i32 %39, 4
  store i32 %40, ptr %11, align 4
  %41 = load i32, ptr %4, align 4
  %42 = and i32 %41, 3
  switch i32 %42, label %181 [
    i32 0, label %43
    i32 3, label %77
    i32 2, label %110
    i32 1, label %143
  ]

43:                                               ; preds = %37
  br label %44

44:                                               ; preds = %176, %43
  %45 = load ptr, ptr %6, align 8
  %46 = load i8, ptr %45, align 1
  %47 = zext i8 %46 to i32
  %48 = mul nsw i32 %47, 4
  store i32 %48, ptr %3, align 4
  %49 = load ptr, ptr %7, align 8
  %50 = load i32, ptr %3, align 4
  %51 = add nsw i32 %50, 1
  store i32 %51, ptr %3, align 4
  %52 = sext i32 %50 to i64
  %53 = getelementptr inbounds i8, ptr %49, i64 %52
  %54 = load i8, ptr %53, align 1
  %55 = load ptr, ptr %8, align 8
  %56 = getelementptr inbounds i8, ptr %55, i64 0
  store i8 %54, ptr %56, align 1
  %57 = load ptr, ptr %7, align 8
  %58 = load i32, ptr %3, align 4
  %59 = add nsw i32 %58, 1
  store i32 %59, ptr %3, align 4
  %60 = sext i32 %58 to i64
  %61 = getelementptr inbounds i8, ptr %57, i64 %60
  %62 = load i8, ptr %61, align 1
  %63 = load ptr, ptr %8, align 8
  %64 = getelementptr inbounds i8, ptr %63, i64 1
  store i8 %62, ptr %64, align 1
  %65 = load ptr, ptr %7, align 8
  %66 = load i32, ptr %3, align 4
  %67 = add nsw i32 %66, 1
  store i32 %67, ptr %3, align 4
  %68 = sext i32 %66 to i64
  %69 = getelementptr inbounds i8, ptr %65, i64 %68
  %70 = load i8, ptr %69, align 1
  %71 = load ptr, ptr %8, align 8
  %72 = getelementptr inbounds i8, ptr %71, i64 2
  store i8 %70, ptr %72, align 1
  %73 = load ptr, ptr %6, align 8
  %74 = getelementptr inbounds nuw i8, ptr %73, i32 1
  store ptr %74, ptr %6, align 8
  %75 = load ptr, ptr %8, align 8
  %76 = getelementptr inbounds i8, ptr %75, i64 3
  store ptr %76, ptr %8, align 8
  br label %77

77:                                               ; preds = %37, %44
  %78 = load ptr, ptr %6, align 8
  %79 = load i8, ptr %78, align 1
  %80 = zext i8 %79 to i32
  %81 = mul nsw i32 %80, 4
  store i32 %81, ptr %3, align 4
  %82 = load ptr, ptr %7, align 8
  %83 = load i32, ptr %3, align 4
  %84 = add nsw i32 %83, 1
  store i32 %84, ptr %3, align 4
  %85 = sext i32 %83 to i64
  %86 = getelementptr inbounds i8, ptr %82, i64 %85
  %87 = load i8, ptr %86, align 1
  %88 = load ptr, ptr %8, align 8
  %89 = getelementptr inbounds i8, ptr %88, i64 0
  store i8 %87, ptr %89, align 1
  %90 = load ptr, ptr %7, align 8
  %91 = load i32, ptr %3, align 4
  %92 = add nsw i32 %91, 1
  store i32 %92, ptr %3, align 4
  %93 = sext i32 %91 to i64
  %94 = getelementptr inbounds i8, ptr %90, i64 %93
  %95 = load i8, ptr %94, align 1
  %96 = load ptr, ptr %8, align 8
  %97 = getelementptr inbounds i8, ptr %96, i64 1
  store i8 %95, ptr %97, align 1
  %98 = load ptr, ptr %7, align 8
  %99 = load i32, ptr %3, align 4
  %100 = add nsw i32 %99, 1
  store i32 %100, ptr %3, align 4
  %101 = sext i32 %99 to i64
  %102 = getelementptr inbounds i8, ptr %98, i64 %101
  %103 = load i8, ptr %102, align 1
  %104 = load ptr, ptr %8, align 8
  %105 = getelementptr inbounds i8, ptr %104, i64 2
  store i8 %103, ptr %105, align 1
  %106 = load ptr, ptr %6, align 8
  %107 = getelementptr inbounds nuw i8, ptr %106, i32 1
  store ptr %107, ptr %6, align 8
  %108 = load ptr, ptr %8, align 8
  %109 = getelementptr inbounds i8, ptr %108, i64 3
  store ptr %109, ptr %8, align 8
  br label %110

110:                                              ; preds = %37, %77
  %111 = load ptr, ptr %6, align 8
  %112 = load i8, ptr %111, align 1
  %113 = zext i8 %112 to i32
  %114 = mul nsw i32 %113, 4
  store i32 %114, ptr %3, align 4
  %115 = load ptr, ptr %7, align 8
  %116 = load i32, ptr %3, align 4
  %117 = add nsw i32 %116, 1
  store i32 %117, ptr %3, align 4
  %118 = sext i32 %116 to i64
  %119 = getelementptr inbounds i8, ptr %115, i64 %118
  %120 = load i8, ptr %119, align 1
  %121 = load ptr, ptr %8, align 8
  %122 = getelementptr inbounds i8, ptr %121, i64 0
  store i8 %120, ptr %122, align 1
  %123 = load ptr, ptr %7, align 8
  %124 = load i32, ptr %3, align 4
  %125 = add nsw i32 %124, 1
  store i32 %125, ptr %3, align 4
  %126 = sext i32 %124 to i64
  %127 = getelementptr inbounds i8, ptr %123, i64 %126
  %128 = load i8, ptr %127, align 1
  %129 = load ptr, ptr %8, align 8
  %130 = getelementptr inbounds i8, ptr %129, i64 1
  store i8 %128, ptr %130, align 1
  %131 = load ptr, ptr %7, align 8
  %132 = load i32, ptr %3, align 4
  %133 = add nsw i32 %132, 1
  store i32 %133, ptr %3, align 4
  %134 = sext i32 %132 to i64
  %135 = getelementptr inbounds i8, ptr %131, i64 %134
  %136 = load i8, ptr %135, align 1
  %137 = load ptr, ptr %8, align 8
  %138 = getelementptr inbounds i8, ptr %137, i64 2
  store i8 %136, ptr %138, align 1
  %139 = load ptr, ptr %6, align 8
  %140 = getelementptr inbounds nuw i8, ptr %139, i32 1
  store ptr %140, ptr %6, align 8
  %141 = load ptr, ptr %8, align 8
  %142 = getelementptr inbounds i8, ptr %141, i64 3
  store ptr %142, ptr %8, align 8
  br label %143

143:                                              ; preds = %37, %110
  %144 = load ptr, ptr %6, align 8
  %145 = load i8, ptr %144, align 1
  %146 = zext i8 %145 to i32
  %147 = mul nsw i32 %146, 4
  store i32 %147, ptr %3, align 4
  %148 = load ptr, ptr %7, align 8
  %149 = load i32, ptr %3, align 4
  %150 = add nsw i32 %149, 1
  store i32 %150, ptr %3, align 4
  %151 = sext i32 %149 to i64
  %152 = getelementptr inbounds i8, ptr %148, i64 %151
  %153 = load i8, ptr %152, align 1
  %154 = load ptr, ptr %8, align 8
  %155 = getelementptr inbounds i8, ptr %154, i64 0
  store i8 %153, ptr %155, align 1
  %156 = load ptr, ptr %7, align 8
  %157 = load i32, ptr %3, align 4
  %158 = add nsw i32 %157, 1
  store i32 %158, ptr %3, align 4
  %159 = sext i32 %157 to i64
  %160 = getelementptr inbounds i8, ptr %156, i64 %159
  %161 = load i8, ptr %160, align 1
  %162 = load ptr, ptr %8, align 8
  %163 = getelementptr inbounds i8, ptr %162, i64 1
  store i8 %161, ptr %163, align 1
  %164 = load ptr, ptr %7, align 8
  %165 = load i32, ptr %3, align 4
  %166 = add nsw i32 %165, 1
  store i32 %166, ptr %3, align 4
  %167 = sext i32 %165 to i64
  %168 = getelementptr inbounds i8, ptr %164, i64 %167
  %169 = load i8, ptr %168, align 1
  %170 = load ptr, ptr %8, align 8
  %171 = getelementptr inbounds i8, ptr %170, i64 2
  store i8 %169, ptr %171, align 1
  %172 = load ptr, ptr %6, align 8
  %173 = getelementptr inbounds nuw i8, ptr %172, i32 1
  store ptr %173, ptr %6, align 8
  %174 = load ptr, ptr %8, align 8
  %175 = getelementptr inbounds i8, ptr %174, i64 3
  store ptr %175, ptr %8, align 8
  br label %176

176:                                              ; preds = %143
  %177 = load i32, ptr %11, align 4
  %178 = add nsw i32 %177, -1
  store i32 %178, ptr %11, align 4
  %179 = icmp sgt i32 %178, 0
  br i1 %179, label %44, label %180, !llvm.loop !12

180:                                              ; preds = %176
  br label %181

181:                                              ; preds = %180, %37
  call void @llvm.lifetime.end.p0(i64 4, ptr %11) #2
  %182 = load i32, ptr %9, align 4
  %183 = load ptr, ptr %6, align 8
  %184 = sext i32 %182 to i64
  %185 = getelementptr inbounds i8, ptr %183, i64 %184
  store ptr %185, ptr %6, align 8
  %186 = load i32, ptr %10, align 4
  %187 = load ptr, ptr %8, align 8
  %188 = sext i32 %186 to i64
  %189 = getelementptr inbounds i8, ptr %187, i64 %188
  store ptr %189, ptr %8, align 8
  br label %33, !llvm.loop !13

190:                                              ; preds = %33
  call void @llvm.lifetime.end.p0(i64 4, ptr %10) #2
  call void @llvm.lifetime.end.p0(i64 4, ptr %9) #2
  call void @llvm.lifetime.end.p0(i64 8, ptr %8) #2
  call void @llvm.lifetime.end.p0(i64 8, ptr %7) #2
  call void @llvm.lifetime.end.p0(i64 8, ptr %6) #2
  call void @llvm.lifetime.end.p0(i64 4, ptr %5) #2
  call void @llvm.lifetime.end.p0(i64 4, ptr %4) #2
  call void @llvm.lifetime.end.p0(i64 4, ptr %3) #2
  ret void
}