; Function Attrs: nofree norecurse nosync nounwind memory(readwrite, inaccessiblemem: none) uwtable
define internal void @Blit1to3(ptr noundef readonly captures(none) %0) #1 {
  %2 = getelementptr inbounds nuw i8, ptr %0, i64 52
  %3 = load i32, ptr %2, align 4
  %4 = getelementptr inbounds nuw i8, ptr %0, i64 96
  %5 = load ptr, ptr %4, align 8
  %.not73 = icmp eq i32 %3, 0
  br i1 %.not73, label %._crit_edge, label %.lr.ph

.lr.ph:                                           ; preds = %1
  %6 = getelementptr inbounds nuw i8, ptr %0, i64 60
  %7 = load i32, ptr %6, align 4
  %8 = getelementptr inbounds nuw i8, ptr %0, i64 40
  %9 = load ptr, ptr %8, align 8
  %10 = getelementptr inbounds nuw i8, ptr %0, i64 28
  %11 = load i32, ptr %10, align 4
  %12 = getelementptr inbounds nuw i8, ptr %0, i64 8
  %13 = load ptr, ptr %12, align 8
  %14 = getelementptr inbounds nuw i8, ptr %0, i64 48
  %15 = load i32, ptr %14, align 8
  %16 = add nsw i32 %15, 3
  %17 = sdiv i32 %16, 4
  %18 = and i32 %15, 3
  %19 = sext i32 %11 to i64
  %20 = sext i32 %7 to i64
  br label %21

21:                                               ; preds = %.lr.ph, %81
  %.in = phi i32 [ %3, %.lr.ph ], [ %22, %81 ]
  %.06375 = phi ptr [ %9, %.lr.ph ], [ %83, %81 ]
  %.06774 = phi ptr [ %13, %.lr.ph ], [ %82, %81 ]
  %22 = add nsw i32 %.in, -1
  switch i32 %18, label %default.unreachable76 [
    i32 0, label %23
    i32 3, label %37
    i32 2, label %51
    i32 1, label %65
  ]

23:                                               ; preds = %21, %65
  %.471 = phi ptr [ %77, %65 ], [ %.06774, %21 ]
  %.4 = phi ptr [ %78, %65 ], [ %.06375, %21 ]
  %.3 = phi i32 [ %79, %65 ], [ %17, %21 ]
  %24 = load i8, ptr %.471, align 1
  %25 = zext i8 %24 to i64
  %26 = shl nuw nsw i64 %25, 2
  %27 = getelementptr inbounds nuw i8, ptr %5, i64 %26
  %28 = load i8, ptr %27, align 1
  store i8 %28, ptr %.4, align 1
  %29 = getelementptr inbounds nuw i8, ptr %27, i64 1
  %30 = load i8, ptr %29, align 1
  %31 = getelementptr inbounds nuw i8, ptr %.4, i64 1
  store i8 %30, ptr %31, align 1
  %32 = getelementptr inbounds nuw i8, ptr %27, i64 2
  %33 = load i8, ptr %32, align 1
  %34 = getelementptr inbounds nuw i8, ptr %.4, i64 2
  store i8 %33, ptr %34, align 1
  %35 = getelementptr inbounds nuw i8, ptr %.471, i64 1
  %36 = getelementptr inbounds nuw i8, ptr %.4, i64 3
  br label %37

37:                                               ; preds = %23, %21
  %.168 = phi ptr [ %35, %23 ], [ %.06774, %21 ]
  %.164 = phi ptr [ %36, %23 ], [ %.06375, %21 ]
  %.0 = phi i32 [ %.3, %23 ], [ %17, %21 ]
  %38 = load i8, ptr %.168, align 1
  %39 = zext i8 %38 to i64
  %40 = shl nuw nsw i64 %39, 2
  %41 = getelementptr inbounds nuw i8, ptr %5, i64 %40
  %42 = load i8, ptr %41, align 1
  store i8 %42, ptr %.164, align 1
  %43 = getelementptr inbounds nuw i8, ptr %41, i64 1
  %44 = load i8, ptr %43, align 1
  %45 = getelementptr inbounds nuw i8, ptr %.164, i64 1
  store i8 %44, ptr %45, align 1
  %46 = getelementptr inbounds nuw i8, ptr %41, i64 2
  %47 = load i8, ptr %46, align 1
  %48 = getelementptr inbounds nuw i8, ptr %.164, i64 2
  store i8 %47, ptr %48, align 1
  %49 = getelementptr inbounds nuw i8, ptr %.168, i64 1
  %50 = getelementptr inbounds nuw i8, ptr %.164, i64 3
  br label %51

51:                                               ; preds = %37, %21
  %.269 = phi ptr [ %49, %37 ], [ %.06774, %21 ]
  %.265 = phi ptr [ %50, %37 ], [ %.06375, %21 ]
  %.1 = phi i32 [ %.0, %37 ], [ %17, %21 ]
  %52 = load i8, ptr %.269, align 1
  %53 = zext i8 %52 to i64
  %54 = shl nuw nsw i64 %53, 2
  %55 = getelementptr inbounds nuw i8, ptr %5, i64 %54
  %56 = load i8, ptr %55, align 1
  store i8 %56, ptr %.265, align 1
  %57 = getelementptr inbounds nuw i8, ptr %55, i64 1
  %58 = load i8, ptr %57, align 1
  %59 = getelementptr inbounds nuw i8, ptr %.265, i64 1
  store i8 %58, ptr %59, align 1
  %60 = getelementptr inbounds nuw i8, ptr %55, i64 2
  %61 = load i8, ptr %60, align 1
  %62 = getelementptr inbounds nuw i8, ptr %.265, i64 2
  store i8 %61, ptr %62, align 1
  %63 = getelementptr inbounds nuw i8, ptr %.269, i64 1
  %64 = getelementptr inbounds nuw i8, ptr %.265, i64 3
  br label %65

65:                                               ; preds = %51, %21
  %.370 = phi ptr [ %.06774, %21 ], [ %63, %51 ]
  %.366 = phi ptr [ %.06375, %21 ], [ %64, %51 ]
  %.2 = phi i32 [ %17, %21 ], [ %.1, %51 ]
  %66 = load i8, ptr %.370, align 1
  %67 = zext i8 %66 to i64
  %68 = shl nuw nsw i64 %67, 2
  %69 = getelementptr inbounds nuw i8, ptr %5, i64 %68
  %70 = load i8, ptr %69, align 1
  store i8 %70, ptr %.366, align 1
  %71 = getelementptr inbounds nuw i8, ptr %69, i64 1
  %72 = load i8, ptr %71, align 1
  %73 = getelementptr inbounds nuw i8, ptr %.366, i64 1
  store i8 %72, ptr %73, align 1
  %74 = getelementptr inbounds nuw i8, ptr %69, i64 2
  %75 = load i8, ptr %74, align 1
  %76 = getelementptr inbounds nuw i8, ptr %.366, i64 2
  store i8 %75, ptr %76, align 1
  %77 = getelementptr inbounds nuw i8, ptr %.370, i64 1
  %78 = getelementptr inbounds nuw i8, ptr %.366, i64 3
  %79 = add nsw i32 %.2, -1
  %80 = icmp sgt i32 %.2, 1
  br i1 %80, label %23, label %81, !llvm.loop !12

default.unreachable76:                            ; preds = %21
  unreachable

81:                                               ; preds = %65
  %82 = getelementptr inbounds i8, ptr %77, i64 %19
  %83 = getelementptr inbounds i8, ptr %78, i64 %20
  %.not = icmp eq i32 %22, 0
  br i1 %.not, label %._crit_edge, label %21, !llvm.loop !13

._crit_edge:                                      ; preds = %81, %1
  ret void
}